	.file	"stack.c"
	.text
	.globl	myfunc4
	.type	myfunc4, @function
myfunc4:
.LFB0:
	.cfi_startproc
	pushl	%ebp
	.cfi_def_cfa_offset 8
	.cfi_offset 5, -8
	movl	%esp, %ebp
	.cfi_def_cfa_register 5
	popl	%ebp
	.cfi_restore 5
	.cfi_def_cfa 4, 4
	ret
	.cfi_endproc
.LFE0:
	.size	myfunc4, .-myfunc4
	.globl	myfunc3
	.type	myfunc3, @function
myfunc3:
.LFB1:
	.cfi_startproc
	pushl	%ebp
	.cfi_def_cfa_offset 8
	.cfi_offset 5, -8
	movl	%esp, %ebp
	.cfi_def_cfa_register 5
	subl	$16, %esp
	call	myfunc4
	movl	$3, -16(%ebp)
	movl	$4, -12(%ebp)
	movl	$5, -8(%ebp)
	movl	$6, -4(%ebp)
	movl	$0, %eax
	leave
	.cfi_restore 5
	.cfi_def_cfa 4, 4
	ret
	.cfi_endproc
.LFE1:
	.size	myfunc3, .-myfunc3
	.globl	myfunc2
	.type	myfunc2, @function
myfunc2:
.LFB2:
	.cfi_startproc
	pushl	%ebp
	.cfi_def_cfa_offset 8
	.cfi_offset 5, -8
	movl	%esp, %ebp
	.cfi_def_cfa_register 5
	call	myfunc3
	movl	$0, %eax
	popl	%ebp
	.cfi_restore 5
	.cfi_def_cfa 4, 4
	ret
	.cfi_endproc
.LFE2:
	.size	myfunc2, .-myfunc2
	.globl	myfunc
	.type	myfunc, @function
myfunc:
.LFB3:
	.cfi_startproc
	pushl	%ebp
	.cfi_def_cfa_offset 8
	.cfi_offset 5, -8
	movl	%esp, %ebp
	.cfi_def_cfa_register 5
	subl	$8, %esp
	movl	$2, 4(%esp)
	movl	$1, (%esp)
	call	myfunc2
	movl	$0, %eax
	leave
	.cfi_restore 5
	.cfi_def_cfa 4, 4
	ret
	.cfi_endproc
.LFE3:
	.size	myfunc, .-myfunc
	.globl	main
	.type	main, @function
main:
.LFB4:
	.cfi_startproc
	pushl	%ebp
	.cfi_def_cfa_offset 8
	.cfi_offset 5, -8
	movl	%esp, %ebp
	.cfi_def_cfa_register 5
	call	myfunc
	movl	$0, %eax
	popl	%ebp
	.cfi_restore 5
	.cfi_def_cfa 4, 4
	ret
	.cfi_endproc
.LFE4:
	.size	main, .-main
	.ident	"GCC: (Ubuntu/Linaro 4.7.3-1ubuntu1) 4.7.3"
	.section	.note.GNU-stack,"",@progbits
